	.text
	.attribute	4, 16
	.attribute	5, "rv64i2p0_f2p0_d2p0_c2p0"
	.file	"LLVMDialectModule"
	.globl	forward                         # -- Begin function forward
	.p2align	1
	.type	forward,@function
forward:                                # @forward
.Lfunc_begin0:
	.file	1 "/home/tianyi/fdra/app-compiler/cgra-opt/experiments/FloatKernel" "3_forward_llvm.mlir"
	.loc	1 4 0                           # 3_forward_llvm.mlir:4:0
	.cfi_startproc
# %bb.0:
	addi	sp, sp, -192
	.cfi_def_cfa_offset 192
	sd	ra, 184(sp)                     # 8-byte Folded Spill
	sd	s0, 176(sp)                     # 8-byte Folded Spill
	sd	s1, 168(sp)                     # 8-byte Folded Spill
	sd	s2, 160(sp)                     # 8-byte Folded Spill
	.cfi_offset ra, -8
	.cfi_offset s0, -16
	.cfi_offset s1, -24
	.cfi_offset s2, -32
	addi	s0, sp, 192
	.cfi_def_cfa s0, 0
	andi	sp, sp, -64
	mv	s2, a0
.Lpcrel_hi0:
.Ltmp0:
	.loc	1 61 5 prologue_end             # 3_forward_llvm.mlir:61:5
	auipc	a0, %pcrel_hi(.L__constant_3x3xf32)
	addi	a0, a0, %pcrel_lo(.Lpcrel_hi0)
	mv	a1, sp
	call	forward_kernel_0@plt
	.loc	1 109 11                        # 3_forward_llvm.mlir:109:11
	li	a0, 100
	call	malloc@plt
	.loc	1 114 11                        # 3_forward_llvm.mlir:114:11
	addi	a0, a0, 63
	.loc	1 116 11                        # 3_forward_llvm.mlir:116:11
	andi	s1, a0, -64
	.loc	1 137 5                         # 3_forward_llvm.mlir:137:5
	sd	zero, 0(s1)
	sd	zero, 8(s1)
	sd	zero, 16(s1)
	sd	zero, 24(s1)
	sw	zero, 32(s1)
	.loc	1 140 5                         # 3_forward_llvm.mlir:140:5
	mv	a2, sp
	mv	a0, s1
	mv	a1, s2
	call	forward_kernel_1@plt
	.loc	1 142 5                         # 3_forward_llvm.mlir:142:5
	mv	a0, s1
	addi	sp, s0, -192
	ld	ra, 184(sp)                     # 8-byte Folded Reload
	ld	s0, 176(sp)                     # 8-byte Folded Reload
	ld	s1, 168(sp)                     # 8-byte Folded Reload
	ld	s2, 160(sp)                     # 8-byte Folded Reload
	addi	sp, sp, 192
	ret
.Ltmp1:
.Lfunc_end0:
	.size	forward, .Lfunc_end0-forward
	.cfi_endproc
                                        # -- End function
	.type	.L__constant_3x3xf32,@object    # @__constant_3x3xf32
	.section	.rodata,"a",@progbits
	.p2align	4
.L__constant_3x3xf32:
	.word	0xbf08a305                      # float -0.533737481
	.word	0x3d94da0e                      # float 0.0726815313
	.word	0x3f0c532c                      # float 0.548144102
	.word	0x3eadde8c                      # float 0.339588523
	.word	0xbe5990d1                      # float -0.212466493
	.word	0x3e04a9ba                      # float 0.129553705
	.word	0x3ed8a549                      # float 0.423136026
	.word	0x3eebcecc                      # float 0.46056211
	.word	0xbd1174c8                      # float -0.0355117619
	.size	.L__constant_3x3xf32, 36

	.section	".note.GNU-stack","",@progbits