	.file	"tiny-malloc.c"
	.option nopic
	.attribute arch, "rv64i2p0_m2p0_a2p0_f2p0_d2p0_c2p0"
	.attribute unaligned_access, 0
	.attribute stack_align, 16
	.text
.Ltext0:
	.cfi_sections	.debug_frame
	.file 0 "/home/tianyi/MLIRCGRA/CGRA-Flow/mlir-cgra/experiments/LJHtest/LinearModel" "/home/tianyi/chipyard/generators/fdra/software/tests/riscv-tests/debug/programs/tiny-malloc.c"
	.section	.rodata.str1.8,"aMS",@progbits,1
	.align	3
.LC0:
	.string	"[Info] malloc size: %d\n"
	.text
	.align	1
	.globl	malloc
	.type	malloc, @function
malloc:
.LFB3:
	.file 1 "/home/tianyi/chipyard/generators/fdra/software/tests/riscv-tests/debug/programs/tiny-malloc.c"
	.loc 1 135 1
	.cfi_startproc
.LVL0:
	addi	sp,sp,-32
	.cfi_def_cfa_offset 32
	sd	ra,24(sp)
	sd	s0,16(sp)
	sd	s1,8(sp)
	.cfi_offset 1, -8
	.cfi_offset 8, -16
	.cfi_offset 9, -24
	addi	s0,sp,32
	.cfi_def_cfa 8, 0
	mv	s1,a0
	.loc 1 136 3
	.loc 1 137 3
	.loc 1 138 3
	mv	a1,a0
	lla	a0,.LC0
.LVL1:
	call	printf
.LVL2:
	.loc 1 142 3
	.loc 1 142 22 is_stmt 0
	li	a5,7
	li	a3,16
	bleu	s1,a5,.L2
	.loc 1 142 22 discriminator 1
	neg	a3,s1
	andi	a3,a3,7
	addi	s1,s1,8
.LVL3:
	add	a3,a3,s1
.LVL4:
.L2:
	.loc 1 145 3 is_stmt 1 discriminator 4
	.loc 1 145 17 is_stmt 0 discriminator 4
	ld	a5,__malloc_freelist
	.loc 1 146 8 is_stmt 1 discriminator 4
	beq	a5,zero,.L3
	.loc 1 145 17 is_stmt 0
	lla	a2,__malloc_freelist
	j	.L9
.LVL5:
.L13:
	.loc 1 155 4 is_stmt 1
	.loc 1 155 32 is_stmt 0
	addi	a1,a3,16
	.loc 1 155 7
	bgeu	a4,a1,.L5
	.loc 1 157 8 is_stmt 1
	.loc 1 157 25 is_stmt 0
	ld	a4,8(a5)
	.loc 1 157 18
	sd	a4,0(a2)
.LVL6:
	.loc 1 158 8 is_stmt 1
	.loc 1 158 15 is_stmt 0
	addi	a0,a5,8
	j	.L1
.LVL7:
.L5:
.LBB2:
	.loc 1 162 8 is_stmt 1
	.loc 1 163 8
	.loc 1 163 12 is_stmt 0
	ld	a0,8(a5)
.LVL8:
	.loc 1 164 8 is_stmt 1
	.loc 1 164 40 is_stmt 0
	add	a1,a5,a3
	.loc 1 164 18
	sd	a1,0(a2)
.LVL9:
	.loc 1 165 8 is_stmt 1
	.loc 1 162 15 is_stmt 0
	sub	a4,a4,a3
.LVL10:
	.loc 1 165 26
	sd	a4,0(a1)
	.loc 1 166 8 is_stmt 1
	.loc 1 166 9 is_stmt 0
	ld	a4,0(a2)
.LVL11:
	.loc 1 166 26
	sd	a0,8(a4)
.LVL12:
	.loc 1 167 8 is_stmt 1
	j	.L7
.LVL13:
.L14:
.LBE2:
.LBB3:
	.loc 1 176 4
	.loc 1 177 4
	.loc 1 177 10 is_stmt 0
	sub	a1,s0,a1
	addi	a1,a1,-32
	.loc 1 176 11
	sub	a4,a3,a4
.LVL14:
	.loc 1 177 7
	bltu	a1,a4,.L1
	.loc 1 180 4 is_stmt 1
	.loc 1 180 14 is_stmt 0
	sd	zero,0(a2)
.LVL15:
	.loc 1 181 4 is_stmt 1
	.loc 1 187 8
	.loc 1 187 46 is_stmt 0
	add	a7,a5,a3
	.loc 1 187 21
	sd	a7,__malloc_end,a4
.LVL16:
	.loc 1 190 4 is_stmt 1
	j	.L7
.LVL17:
.L8:
.LBE3:
	.loc 1 147 17
	addi	a2,a5,8
.LVL18:
	.loc 1 146 8
	.loc 1 147 17 is_stmt 0
	mv	a5,a0
.LVL19:
.L9:
	.loc 1 149 7 is_stmt 1
	.loc 1 151 7
	.loc 1 151 16 is_stmt 0
	ld	a4,0(a5)
	.loc 1 151 10
	bgeu	a4,a3,.L13
	.loc 1 173 7 is_stmt 1
	.loc 1 173 18 is_stmt 0
	ld	a0,8(a5)
	.loc 1 173 10
	bne	a0,zero,.L8
	.loc 1 174 20
	ld	a1,__malloc_end
	.loc 1 174 46
	add	a6,a4,a5
	.loc 1 174 4
	beq	a1,a6,.L14
.LVL20:
.L3:
	.loc 1 197 3 is_stmt 1
	.loc 1 197 9 is_stmt 0
	ld	a5,__malloc_end
	sub	a4,s0,a5
	addi	a4,a4,-32
	.loc 1 197 6
	bltu	a4,a3,.L11
	.loc 1 200 3 is_stmt 1
	.loc 1 202 7
.LVL21:
	.loc 1 203 7
	.loc 1 203 52 is_stmt 0
	add	a4,a5,a3
	.loc 1 203 20
	sd	a4,__malloc_end,a2
.LVL22:
.L7:
	.loc 1 210 3 is_stmt 1
	.loc 1 210 15 is_stmt 0
	sd	a3,0(a5)
	.loc 1 211 3 is_stmt 1
	.loc 1 211 10 is_stmt 0
	addi	a0,a5,8
.LVL23:
.L1:
	.loc 1 212 1
	ld	ra,24(sp)
	.cfi_remember_state
	.cfi_restore 1
	ld	s0,16(sp)
	.cfi_restore 8
	.cfi_def_cfa 2, 32
	ld	s1,8(sp)
	.cfi_restore 9
	addi	sp,sp,32
	.cfi_def_cfa_offset 0
	jr	ra
.L11:
	.cfi_restore_state
	.loc 1 198 12
	li	a0,0
	j	.L1
	.cfi_endproc
.LFE3:
	.size	malloc, .-malloc
	.globl	__malloc_freelist
	.globl	__malloc_end
	.section	.sbss,"aw",@nobits
	.align	3
	.type	__malloc_freelist, @object
	.size	__malloc_freelist, 8
__malloc_freelist:
	.zero	8
	.section	.sdata,"aw"
	.align	3
	.type	__malloc_end, @object
	.size	__malloc_end, 8
__malloc_end:
	.dword	__malloc_start
	.text
.Letext0:
	.file 2 "/home/tianyi/chipyard/.conda-env/riscv-tools/lib/gcc/riscv64-unknown-elf/12.2.0/include/stddef.h"
	.file 3 "/home/tianyi/chipyard/.conda-env/riscv-tools/riscv64-unknown-elf/include/stdio.h"