	.file	"main.c"
	.option nopic
	.attribute arch, "rv64i2p0_m2p0_a2p0_f2p0_d2p0_c2p0"
	.attribute unaligned_access, 0
	.attribute stack_align, 16
	.text
.Ltext0:
	.cfi_sections	.debug_frame
	.file 0 "/home/tianyi/MLIRCGRA/CGRA-Flow/mlir-cgra/experiments/LJHtest/LinearModel" "/home/tianyi/MLIRCGRA/CGRA-Flow/mlir-cgra/experiments/LJHtest/LinearModel/main.c"
	.section	.rodata.str1.8,"aMS",@progbits,1
	.align	3
.LC0:
	.string	"IT is stupid!\n"
	.align	3
.LC9:
	.string	"Before malloc!\n"
	.align	3
.LC10:
	.string	"after malloc!\n"
	.align	3
.LC11:
	.string	"start cycle:%d\n"
	.align	3
.LC12:
	.string	"It takes %d cycles for CPU to finish the task.\n"
	.align	3
.LC13:
	.string	"Done!\n"
	.text
	.align	1
	.globl	main
	.type	main, @function
main:
.LFB11:
	.file 1 "/home/tianyi/MLIRCGRA/CGRA-Flow/mlir-cgra/experiments/LJHtest/LinearModel/main.c"
	.loc 1 11 1
	.cfi_startproc
.LVL0:
	addi	sp,sp,-64
	.cfi_def_cfa_offset 64
	sd	ra,56(sp)
	sd	s0,48(sp)
	.cfi_offset 1, -8
	.cfi_offset 8, -16
	.loc 1 12 3
	lla	a0,.LC0
.LVL1:
	call	printf
.LVL2:
	.loc 1 13 3
	.loc 1 14 3
	.loc 1 15 2
	.loc 1 16 3
	.loc 1 17 2
	.loc 1 18 2
	.loc 1 18 15
	.loc 1 19 18
	.loc 1 20 5
	.loc 1 20 12 is_stmt 0
	sw	zero,0(sp)
	.loc 1 19 24 is_stmt 1
.LVL3:
	.loc 1 19 18
	.loc 1 20 5
	.loc 1 20 12 is_stmt 0
	flw	fa5,.LC1,a5
	fsw	fa5,4(sp)
	.loc 1 19 24 is_stmt 1
.LVL4:
	.loc 1 19 18
	.loc 1 20 5
	.loc 1 20 12 is_stmt 0
	flw	fa5,.LC2,a5
	fsw	fa5,8(sp)
	.loc 1 19 24 is_stmt 1
.LVL5:
	.loc 1 19 18
	.loc 1 18 21
	.loc 1 18 15
	.loc 1 19 18
	.loc 1 20 5
	.loc 1 20 12 is_stmt 0
	fsw	fa5,12(sp)
	.loc 1 19 24 is_stmt 1
.LVL6:
	.loc 1 19 18
	.loc 1 20 5
	.loc 1 20 12 is_stmt 0
	flw	fa5,.LC3,a5
	fsw	fa5,16(sp)
	.loc 1 19 24 is_stmt 1
.LVL7:
	.loc 1 19 18
	.loc 1 20 5
	.loc 1 20 12 is_stmt 0
	flw	fa5,.LC4,a5
	fsw	fa5,20(sp)
	.loc 1 19 24 is_stmt 1
.LVL8:
	.loc 1 19 18
	.loc 1 18 21
	.loc 1 18 15
	.loc 1 19 18
	.loc 1 20 5
	.loc 1 20 12 is_stmt 0
	fsw	fa5,24(sp)
	.loc 1 19 24 is_stmt 1
.LVL9:
	.loc 1 19 18
	.loc 1 20 5
	.loc 1 20 12 is_stmt 0
	flw	fa5,.LC5,a5
	fsw	fa5,28(sp)
	.loc 1 19 24 is_stmt 1
.LVL10:
	.loc 1 19 18
	.loc 1 20 5
	.loc 1 20 12 is_stmt 0
	flw	fa5,.LC6,a5
	fsw	fa5,32(sp)
	.loc 1 19 24 is_stmt 1
.LVL11:
	.loc 1 19 18
	.loc 1 18 21
	.loc 1 18 15
	.loc 1 19 18
	.loc 1 20 5
	.loc 1 20 12 is_stmt 0
	fsw	fa5,36(sp)
	.loc 1 19 24 is_stmt 1
.LVL12:
	.loc 1 19 18
	.loc 1 20 5
	.loc 1 20 12 is_stmt 0
	flw	fa5,.LC7,a5
	fsw	fa5,40(sp)
	.loc 1 19 24 is_stmt 1
.LVL13:
	.loc 1 19 18
	.loc 1 20 5
	.loc 1 20 12 is_stmt 0
	flw	fa5,.LC8,a5
	fsw	fa5,44(sp)
	.loc 1 19 24 is_stmt 1
.LVL14:
	.loc 1 19 18
	.loc 1 18 21
	.loc 1 18 15
	.loc 1 22 3
	lla	a0,.LC9
	call	printf
.LVL15:
	.loc 1 23 3
	.loc 1 25 3
	lla	a0,.LC10
	call	printf
.LVL16:
	.loc 1 27 3
.LBB2:
	.loc 1 27 11
	.loc 1 27 11
 #APP
# 27 "/home/tianyi/MLIRCGRA/CGRA-Flow/mlir-cgra/experiments/LJHtest/LinearModel/main.c" 1
	csrr s0, cycle
# 0 "" 2
.LVL17:
	.loc 1 27 11
 #NO_APP
.LBE2:
	.loc 1 28 3
	mv	a1,s0
	lla	a0,.LC11
	call	printf
.LVL18:
	.loc 1 29 3
	.loc 1 29 7 is_stmt 0
	mv	a0,sp
	call	forward
.LVL19:
	.loc 1 30 3 is_stmt 1
.LBB3:
	.loc 1 30 9
	.loc 1 30 9
 #APP
# 30 "/home/tianyi/MLIRCGRA/CGRA-Flow/mlir-cgra/experiments/LJHtest/LinearModel/main.c" 1
	csrr a1, cycle
# 0 "" 2
.LVL20:
	.loc 1 30 9
 #NO_APP
.LBE3:
	.loc 1 32 3
	sub	a1,a1,s0
.LVL21:
	lla	a0,.LC12
	call	printf
.LVL22:
	.loc 1 35 3
	lla	a0,.LC13
	call	printf
.LVL23:
	.loc 1 37 3
	.loc 1 38 1 is_stmt 0
	li	a0,0
	ld	ra,56(sp)
	.cfi_restore 1
	ld	s0,48(sp)
	.cfi_restore 8
.LVL24:
	addi	sp,sp,64
	.cfi_def_cfa_offset 0
	jr	ra
	.cfi_endproc
.LFE11:
	.size	main, .-main
	.section	.srodata.cst4,"aM",@progbits,4
	.align	2
.LC1:
	.word	1065353216
	.align	2
.LC2:
	.word	1073741824
	.align	2
.LC3:
	.word	1077936128
	.align	2
.LC4:
	.word	1082130432
	.align	2
.LC5:
	.word	1084227584
	.align	2
.LC6:
	.word	1086324736
	.align	2
.LC7:
	.word	1088421888
	.align	2
.LC8:
	.word	1090519040
	.text
.Letext0:
	.file 2 "/home/tianyi/chipyard/.conda-env/riscv-tools/riscv64-unknown-elf/include/stdlib.h"
	.file 3 "/home/tianyi/chipyard/.conda-env/riscv-tools/riscv64-unknown-elf/include/stdio.h"
	.file 4 "/home/tianyi/chipyard/.conda-env/riscv-tools/lib/gcc/riscv64-unknown-elf/12.2.0/include/stddef.h"